; Function Attrs: mustprogress uwtable
define hidden noundef i32 @_ZN4ncnn7Padding10load_modelERKNS_8ModelBinE(ptr noundef nonnull align 8 dereferenceable(320) %0, ptr noundef nonnull align 8 dereferenceable(8) %1) unnamed_addr #1 align 2 personality ptr @__gxx_personality_v0 {
  %3 = alloca %"class.ncnn::Mat", align 8
  %4 = getelementptr inbounds nuw i8, ptr %0, i64 240
  %5 = load i32, ptr %4, align 8, !tbaa !40
  %.not = icmp eq i32 %5, 0
  br i1 %.not, label %96, label %6

6:                                                ; preds = %2
  call void @llvm.lifetime.start.p0(i64 72, ptr nonnull %3) #10
  %7 = load ptr, ptr %1, align 8, !tbaa !4
  %8 = getelementptr inbounds nuw i8, ptr %7, i64 16
  %9 = load ptr, ptr %8, align 8
  call void %9(ptr dead_on_unwind nonnull writable sret(%"class.ncnn::Mat") align 8 %3, ptr noundef nonnull align 8 dereferenceable(8) %1, i32 noundef %5, i32 noundef 1)
  %10 = getelementptr inbounds nuw i8, ptr %0, i64 248
  %11 = icmp eq ptr %10, %3
  %.phi.trans.insert = getelementptr inbounds nuw i8, ptr %3, i64 8
  %.pre = load ptr, ptr %.phi.trans.insert, align 8, !tbaa !7
  br i1 %11, label %_ZN4ncnn3MataSERKS0_.exit, label %12

12:                                               ; preds = %6
  %.not.i = icmp eq ptr %.pre, null
  br i1 %.not.i, label %15, label %13

13:                                               ; preds = %12
  %14 = atomicrmw add ptr %.pre, i32 1 acq_rel, align 4
  br label %15

15:                                               ; preds = %13, %12
  %16 = getelementptr inbounds nuw i8, ptr %0, i64 256
  %17 = load ptr, ptr %16, align 8, !tbaa !7
  %.not.i10 = icmp eq ptr %17, null
  br i1 %.not.i10, label %.noexc, label %18

18:                                               ; preds = %15
  %19 = atomicrmw add ptr %17, i32 -1 acq_rel, align 4
  %20 = icmp eq i32 %19, 1
  br i1 %20, label %21, label %.noexc

21:                                               ; preds = %18
  %22 = getelementptr inbounds nuw i8, ptr %0, i64 280
  %23 = load ptr, ptr %22, align 8, !tbaa !15
  %.not3.i11 = icmp eq ptr %23, null
  %24 = load ptr, ptr %10, align 8, !tbaa !16
  br i1 %.not3.i11, label %29, label %25

25:                                               ; preds = %21
  %26 = load ptr, ptr %23, align 8, !tbaa !4
  %27 = getelementptr inbounds nuw i8, ptr %26, i64 24
  %28 = load ptr, ptr %27, align 8
  invoke void %28(ptr noundef nonnull align 8 dereferenceable(8) %23, ptr noundef %24)
          to label %.noexc unwind label %77

29:                                               ; preds = %21
  %.not.i14 = icmp eq ptr %24, null
  br i1 %.not.i14, label %.noexc, label %30

30:                                               ; preds = %29
  call void @free(ptr noundef nonnull %24) #10
  br label %.noexc

.noexc:                                           ; preds = %18, %15, %25, %29, %30
  %31 = getelementptr inbounds nuw i8, ptr %0, i64 264
  %32 = getelementptr inbounds nuw i8, ptr %0, i64 272
  %33 = getelementptr inbounds nuw i8, ptr %0, i64 288
  %34 = getelementptr inbounds nuw i8, ptr %0, i64 292
  %35 = getelementptr inbounds nuw i8, ptr %0, i64 296
  %36 = getelementptr inbounds nuw i8, ptr %0, i64 300
  %37 = getelementptr inbounds nuw i8, ptr %0, i64 304
  %38 = getelementptr inbounds nuw i8, ptr %0, i64 312
  %39 = load ptr, ptr %3, align 8, !tbaa !16
  store ptr %39, ptr %10, align 8, !tbaa !16
  %40 = load ptr, ptr %.phi.trans.insert, align 8, !tbaa !7
  store ptr %40, ptr %16, align 8, !tbaa !7
  %41 = getelementptr inbounds nuw i8, ptr %3, i64 16
  %42 = load i64, ptr %41, align 8, !tbaa !43
  store i64 %42, ptr %31, align 8, !tbaa !43
  %43 = getelementptr inbounds nuw i8, ptr %3, i64 24
  %44 = load i32, ptr %43, align 8, !tbaa !44
  store i32 %44, ptr %32, align 8, !tbaa !44
  %45 = getelementptr inbounds nuw i8, ptr %3, i64 32
  %46 = load ptr, ptr %45, align 8, !tbaa !15
  %47 = getelementptr inbounds nuw i8, ptr %0, i64 280
  store ptr %46, ptr %47, align 8, !tbaa !15
  %48 = getelementptr inbounds nuw i8, ptr %3, i64 40
  %49 = load i32, ptr %48, align 8, !tbaa !45
  store i32 %49, ptr %33, align 8, !tbaa !45
  %50 = getelementptr inbounds nuw i8, ptr %3, i64 44
  %51 = load i32, ptr %50, align 4, !tbaa !46
  store i32 %51, ptr %34, align 4, !tbaa !46
  %52 = getelementptr inbounds nuw i8, ptr %3, i64 48
  %53 = load i32, ptr %52, align 8, !tbaa !47
  store i32 %53, ptr %35, align 8, !tbaa !47
  %54 = getelementptr inbounds nuw i8, ptr %3, i64 52
  %55 = load i32, ptr %54, align 4, !tbaa !48
  store i32 %55, ptr %36, align 4, !tbaa !48
  %56 = getelementptr inbounds nuw i8, ptr %3, i64 56
  %57 = load i32, ptr %56, align 8, !tbaa !49
  store i32 %57, ptr %37, align 8, !tbaa !49
  %58 = getelementptr inbounds nuw i8, ptr %3, i64 64
  %59 = load i64, ptr %58, align 8, !tbaa !17
  store i64 %59, ptr %38, align 8, !tbaa !17
  br label %_ZN4ncnn3MataSERKS0_.exit

_ZN4ncnn3MataSERKS0_.exit:                        ; preds = %6, %.noexc
  %60 = phi ptr [ %40, %.noexc ], [ %.pre, %6 ]
  %.not.i6 = icmp eq ptr %60, null
  br i1 %.not.i6, label %_ZN4ncnn3MatD2Ev.exit, label %61

61:                                               ; preds = %_ZN4ncnn3MataSERKS0_.exit
  %62 = atomicrmw add ptr %60, i32 -1 acq_rel, align 4
  %63 = icmp eq i32 %62, 1
  br i1 %63, label %64, label %_ZN4ncnn3MatD2Ev.exit

64:                                               ; preds = %61
  %65 = getelementptr inbounds nuw i8, ptr %3, i64 32
  %66 = load ptr, ptr %65, align 8, !tbaa !15
  %.not3.i7 = icmp eq ptr %66, null
  %67 = load ptr, ptr %3, align 8, !tbaa !16
  br i1 %.not3.i7, label %72, label %68

68:                                               ; preds = %64
  %69 = load ptr, ptr %66, align 8, !tbaa !4
  %70 = getelementptr inbounds nuw i8, ptr %69, i64 24
  %71 = load ptr, ptr %70, align 8
  invoke void %71(ptr noundef nonnull align 8 dereferenceable(8) %66, ptr noundef %67)
          to label %_ZN4ncnn3MatD2Ev.exit unwind label %74

72:                                               ; preds = %64
  %.not.i15 = icmp eq ptr %67, null
  br i1 %.not.i15, label %_ZN4ncnn3MatD2Ev.exit, label %73

73:                                               ; preds = %72
  call void @free(ptr noundef nonnull %67) #10
  br label %_ZN4ncnn3MatD2Ev.exit

74:                                               ; preds = %68
  %75 = landingpad { ptr, i32 }
          catch ptr null
  %76 = extractvalue { ptr, i32 } %75, 0
  call void @__clang_call_terminate(ptr %76) #17
  unreachable

_ZN4ncnn3MatD2Ev.exit:                            ; preds = %61, %_ZN4ncnn3MataSERKS0_.exit, %68, %72, %73
  call void @llvm.lifetime.end.p0(i64 72, ptr nonnull %3) #10
  br label %96

77:                                               ; preds = %25
  %78 = landingpad { ptr, i32 }
          cleanup
  %79 = load ptr, ptr %.phi.trans.insert, align 8, !tbaa !7
  %.not.i4 = icmp eq ptr %79, null
  br i1 %.not.i4, label %_ZN4ncnn3MatD2Ev.exit3, label %80

80:                                               ; preds = %77
  %81 = atomicrmw add ptr %79, i32 -1 acq_rel, align 4
  %82 = icmp eq i32 %81, 1
  br i1 %82, label %83, label %_ZN4ncnn3MatD2Ev.exit3

83:                                               ; preds = %80
  %84 = getelementptr inbounds nuw i8, ptr %3, i64 32
  %85 = load ptr, ptr %84, align 8, !tbaa !15
  %.not3.i = icmp eq ptr %85, null
  %86 = load ptr, ptr %3, align 8, !tbaa !16
  br i1 %.not3.i, label %91, label %87

87:                                               ; preds = %83
  %88 = load ptr, ptr %85, align 8, !tbaa !4
  %89 = getelementptr inbounds nuw i8, ptr %88, i64 24
  %90 = load ptr, ptr %89, align 8
  invoke void %90(ptr noundef nonnull align 8 dereferenceable(8) %85, ptr noundef %86)
          to label %_ZN4ncnn3MatD2Ev.exit3 unwind label %93

91:                                               ; preds = %83
  %.not.i17 = icmp eq ptr %86, null
  br i1 %.not.i17, label %_ZN4ncnn3MatD2Ev.exit3, label %92

92:                                               ; preds = %91
  call void @free(ptr noundef nonnull %86) #10
  br label %_ZN4ncnn3MatD2Ev.exit3

93:                                               ; preds = %87
  %94 = landingpad { ptr, i32 }
          catch ptr null
  %95 = extractvalue { ptr, i32 } %94, 0
  call void @__clang_call_terminate(ptr %95) #17
  unreachable

_ZN4ncnn3MatD2Ev.exit3:                           ; preds = %80, %77, %87, %91, %92
  call void @llvm.lifetime.end.p0(i64 72, ptr nonnull %3) #10
  resume { ptr, i32 } %78

96:                                               ; preds = %_ZN4ncnn3MatD2Ev.exit, %2
  ret i32 0
}